; Function Attrs: mustprogress uwtable
define void @_ZN7rocksdb29StripTimestampFromInternalKeyEPNSt7__cxx1112basic_stringIcSt11char_traitsIcESaIcEEERKNS_5SliceEm(ptr noundef nonnull %0, ptr noundef nonnull readonly align 8 captures(none) dereferenceable(16) %1, i64 noundef %2) local_unnamed_addr #4 personality ptr @__gxx_personality_v0 {
  %4 = getelementptr inbounds nuw i8, ptr %1, i64 8
  %5 = load i64, ptr %4, align 8, !tbaa !4
  %6 = sub i64 %5, %2
  tail call void @_ZNSt7__cxx1112basic_stringIcSt11char_traitsIcESaIcEE7reserveEm(ptr noundef nonnull align 8 dereferenceable(32) %0, i64 noundef %6)
  %7 = load i64, ptr %4, align 8, !tbaa !4
  %reass.sub = sub i64 %7, %2
  %8 = add i64 %reass.sub, -8
  %9 = getelementptr inbounds nuw i8, ptr %0, i64 8
  %10 = load i64, ptr %9, align 8, !tbaa !11
  %11 = sub i64 4611686018427387903, %10
  %12 = icmp ult i64 %11, %8
  br i1 %12, label %13, label %_ZNSt7__cxx1112basic_stringIcSt11char_traitsIcESaIcEE6appendEPKcm.exit

13:                                               ; preds = %3
  tail call void @_ZSt20__throw_length_errorPKc(ptr noundef nonnull @.str.11) #19
  unreachable

_ZNSt7__cxx1112basic_stringIcSt11char_traitsIcESaIcEE6appendEPKcm.exit: ; preds = %3
  %14 = load ptr, ptr %1, align 8, !tbaa !14
  %15 = tail call noundef nonnull align 8 dereferenceable(32) ptr @_ZNSt7__cxx1112basic_stringIcSt11char_traitsIcESaIcEE9_M_appendEPKcm(ptr noundef nonnull align 8 dereferenceable(32) %0, ptr noundef %14, i64 noundef %8)
  %16 = load i64, ptr %9, align 8, !tbaa !11
  %17 = and i64 %16, -8
  %18 = icmp eq i64 %17, 4611686018427387896
  br i1 %18, label %19, label %_ZNSt7__cxx1112basic_stringIcSt11char_traitsIcESaIcEE6appendEPKcm.exit9

19:                                               ; preds = %_ZNSt7__cxx1112basic_stringIcSt11char_traitsIcESaIcEE6appendEPKcm.exit
  tail call void @_ZSt20__throw_length_errorPKc(ptr noundef nonnull @.str.11) #19
  unreachable

_ZNSt7__cxx1112basic_stringIcSt11char_traitsIcESaIcEE6appendEPKcm.exit9: ; preds = %_ZNSt7__cxx1112basic_stringIcSt11char_traitsIcESaIcEE6appendEPKcm.exit
  %20 = load ptr, ptr %1, align 8, !tbaa !14
  %21 = load i64, ptr %4, align 8, !tbaa !4
  %22 = getelementptr inbounds nuw i8, ptr %20, i64 %21
  %23 = getelementptr inbounds i8, ptr %22, i64 -8
  %24 = tail call noundef nonnull align 8 dereferenceable(32) ptr @_ZNSt7__cxx1112basic_stringIcSt11char_traitsIcESaIcEE9_M_appendEPKcm(ptr noundef nonnull align 8 dereferenceable(32) %0, ptr noundef nonnull %23, i64 noundef 8)
  ret void
}